; Function Attrs: nounwind uwtable
define internal void @dt_control_gpx_apply_job_cleanup(ptr noundef captures(none) %0) #0 {
  %2 = getelementptr inbounds nuw i8, ptr %0, i64 16
  %3 = load ptr, ptr %2, align 8, !tbaa !52
  store ptr null, ptr %2, align 8, !tbaa !52
  %4 = load ptr, ptr %3, align 8, !tbaa !84
  tail call void @g_free(ptr noundef %4) #17
  %5 = getelementptr inbounds nuw i8, ptr %3, i64 8
  %6 = load ptr, ptr %5, align 8, !tbaa !86
  tail call void @g_free(ptr noundef %6) #17
  tail call void @free(ptr noundef %3) #17
  %7 = load ptr, ptr %0, align 8, !tbaa !50
  tail call void @g_list_free(ptr noundef %7) #17
  store ptr null, ptr %0, align 8, !tbaa !50
  %8 = getelementptr inbounds nuw i8, ptr %0, i64 24
  %9 = load i32, ptr %8, align 8, !tbaa !48
  %.not.i = icmp eq i32 %9, 0
  br i1 %.not.i, label %dt_control_image_enumerator_cleanup.exit, label %10

10:                                               ; preds = %1
  tail call void @g_main_context_invoke(ptr noundef null, ptr noundef nonnull @_cursor_clear_busy, ptr noundef null) #17
  br label %dt_control_image_enumerator_cleanup.exit

dt_control_image_enumerator_cleanup.exit:         ; preds = %1, %10
  tail call void @free(ptr noundef nonnull %0) #17
  ret void
}